target datalayout = "e-m:e-p270:32:32-p271:32:32-p272:64:64-i64:64-i128:128-f80:128-n8:16:32:64-S128"
target triple = "x86_64-pc-linux-gnu"

%struct._zend_executor_globals = type { %struct._zval_struct, %struct._zval_struct, [32 x ptr], ptr, ptr, %struct._zend_array, %struct._zend_array, ptr, i32, i8, %struct._zval_struct, i32, ptr, ptr, ptr, ptr, ptr, ptr, i64, ptr, ptr, i32, ptr, i32, i64, i32, i32, i32, i8, i8, %struct.zend_atomic_bool_s, %struct.zend_atomic_bool_s, ptr, i64, ptr, ptr, %struct._zend_array, %struct._zend_array, i32, i8, %struct._zval_struct, %struct._zval_struct, %struct._zend_stack, %struct._zend_stack, %struct._zend_stack, ptr, i32, i32, i64, ptr, ptr, ptr, %struct._zend_objects_store, %struct._zend_lazy_objects_store, ptr, ptr, ptr, [3 x %struct._zend_op], ptr, i8, i8, i64, i32, i32, ptr, [16 x %struct._HashTableIterator], ptr, %union._zend_function, %struct._zend_op, %struct._zend_array, i64, %struct.zend_get_gc_buffer, ptr, ptr, ptr, i64, i8, i32, ptr, ptr, i64, %struct._zend_call_stack, i64, i64, %struct._zend_strtod_state, [6 x ptr] }
%struct.zend_atomic_bool_s = type { i8 }
%struct._zval_struct = type { %union._zend_value, %union.anon, %union.anon.2 }
%union._zend_value = type { i64 }
%union.anon = type { i32 }
%union.anon.2 = type { i32 }
%struct._zend_stack = type { i32, i32, i32, ptr }
%struct._zend_objects_store = type { ptr, i32, i32, i32 }
%struct._zend_lazy_objects_store = type { %struct._zend_array }
%struct._HashTableIterator = type { ptr, i32, i32 }
%union._zend_function = type { %struct._zend_op_array }
%struct._zend_op_array = type { i8, [3 x i8], i32, ptr, ptr, ptr, i32, i32, ptr, ptr, ptr, ptr, i32, ptr, i32, i32, i32, ptr, ptr, ptr, ptr, ptr, i32, i32, ptr, ptr, ptr, i32, i32, i32, i32, ptr, ptr, [6 x ptr] }
%struct._zend_op = type { ptr, %union._znode_op, %union._znode_op, %union._znode_op, i32, i32, i8, i8, i8, i8 }
%union._znode_op = type { i32 }
%struct._zend_array = type { %struct._zend_refcounted_h, %union.anon.4, i32, %union.anon.6, i32, i32, i32, i32, i64, ptr }
%struct._zend_refcounted_h = type { i32, %union.anon.3 }
%union.anon.3 = type { i32 }
%union.anon.4 = type { i32 }
%union.anon.6 = type { ptr }
%struct.zend_get_gc_buffer = type { ptr, ptr, ptr }
%struct._zend_call_stack = type { ptr, i64 }
%struct._zend_strtod_state = type { [8 x ptr], ptr, ptr }
%struct.anon.0 = type { i8, i8, %union.anon.1 }
%union.anon.1 = type { i16 }
%struct._zend_string = type { %struct._zend_refcounted_h, i64, i64, [1 x i8] }
%struct._zend_reference = type { %struct._zend_refcounted_h, %struct._zval_struct, %union.zend_property_info_source_list }
%union.zend_property_info_source_list = type { ptr }
%struct._zend_object = type { %struct._zend_refcounted_h, i32, i32, ptr, ptr, ptr, [1 x %struct._zval_struct] }
%struct._zend_class_entry = type { i8, ptr, %union.anon.8, i32, i32, i32, i32, ptr, ptr, ptr, %struct._zend_array, %struct._zend_array, %struct._zend_array, ptr, ptr, ptr, ptr, ptr, ptr, ptr, ptr, ptr, ptr, ptr, ptr, ptr, ptr, ptr, ptr, ptr, ptr, ptr, %union.anon.9, ptr, ptr, ptr, ptr, i32, i32, i32, i32, %union.anon.10, ptr, ptr, ptr, ptr, i32, ptr, ptr, %union.anon.11 }
%union.anon.8 = type { ptr }
%union.anon.9 = type { ptr }
%union.anon.10 = type { ptr }
%union.anon.11 = type { %struct.anon.12 }
%struct.anon.12 = type { ptr, i32, i32 }

@executor_globals = external global %struct._zend_executor_globals, align 8
@.str.2 = private unnamed_addr constant [5 x i8] c"bool\00", align 1
@.str.3 = private unnamed_addr constant [4 x i8] c"int\00", align 1
@.str.4 = private unnamed_addr constant [6 x i8] c"float\00", align 1
@.str.5 = private unnamed_addr constant [7 x i8] c"string\00", align 1
@.str.6 = private unnamed_addr constant [7 x i8] c"object\00", align 1
@.str.7 = private unnamed_addr constant [9 x i8] c"resource\00", align 1
@.str.8 = private unnamed_addr constant [5 x i8] c"null\00", align 1
@.str.9 = private unnamed_addr constant [9 x i8] c"callable\00", align 1
@.str.10 = private unnamed_addr constant [9 x i8] c"iterable\00", align 1
@.str.11 = private unnamed_addr constant [6 x i8] c"array\00", align 1
@.str.12 = private unnamed_addr constant [5 x i8] c"void\00", align 1
@.str.13 = private unnamed_addr constant [6 x i8] c"mixed\00", align 1
@.str.14 = private unnamed_addr constant [10 x i8] c"int|float\00", align 1
@.str.15 = private unnamed_addr constant [6 x i8] c"false\00", align 1
@.str.16 = private unnamed_addr constant [5 x i8] c"true\00", align 1
@.str.61 = private unnamed_addr constant [33 x i8] c"must be of type %s|int, %s given\00", align 1

; Function Attrs: nounwind uwtable
define dso_local ptr @zend_get_type_by_const(i32 noundef %0) #0 {
  %2 = alloca ptr, align 8
  %3 = alloca i32, align 4
  store i32 %0, ptr %3, align 4, !tbaa !4
  %4 = load i32, ptr %3, align 4, !tbaa !4
  switch i32 %4, label %18 [
    i32 2, label %5
    i32 3, label %5
    i32 18, label %5
    i32 4, label %6
    i32 5, label %7
    i32 6, label %8
    i32 8, label %9
    i32 9, label %10
    i32 1, label %11
    i32 12, label %12
    i32 13, label %13
    i32 7, label %14
    i32 14, label %15
    i32 16, label %16
    i32 19, label %17
  ]

5:                                                ; preds = %1, %1, %1
  store ptr @.str.2, ptr %2, align 8
  br label %19

6:                                                ; preds = %1
  store ptr @.str.3, ptr %2, align 8
  br label %19

7:                                                ; preds = %1
  store ptr @.str.4, ptr %2, align 8
  br label %19

8:                                                ; preds = %1
  store ptr @.str.5, ptr %2, align 8
  br label %19

9:                                                ; preds = %1
  store ptr @.str.6, ptr %2, align 8
  br label %19

10:                                               ; preds = %1
  store ptr @.str.7, ptr %2, align 8
  br label %19

11:                                               ; preds = %1
  store ptr @.str.8, ptr %2, align 8
  br label %19

12:                                               ; preds = %1
  store ptr @.str.9, ptr %2, align 8
  br label %19

13:                                               ; preds = %1
  store ptr @.str.10, ptr %2, align 8
  br label %19

14:                                               ; preds = %1
  store ptr @.str.11, ptr %2, align 8
  br label %19

15:                                               ; preds = %1
  store ptr @.str.12, ptr %2, align 8
  br label %19

16:                                               ; preds = %1
  store ptr @.str.13, ptr %2, align 8
  br label %19

17:                                               ; preds = %1
  store ptr @.str.14, ptr %2, align 8
  br label %19

18:                                               ; preds = %1
  unreachable

19:                                               ; preds = %17, %16, %15, %14, %13, %12, %11, %10, %9, %8, %7, %6, %5
  %20 = load ptr, ptr %2, align 8
  ret ptr %20
}

; Function Attrs: alwaysinline nounwind uwtable
define internal zeroext i8 @zval_get_type(ptr noundef %0) #2 {
  %2 = alloca ptr, align 8
  store ptr %0, ptr %2, align 8, !tbaa !8
  %3 = load ptr, ptr %2, align 8, !tbaa !8
  %4 = getelementptr inbounds nuw %struct._zval_struct, ptr %3, i32 0, i32 1
  %5 = getelementptr inbounds nuw %struct.anon.0, ptr %4, i32 0, i32 0
  %6 = load i8, ptr %5, align 8, !tbaa !44
  ret i8 %6
}

; Function Attrs: nounwind uwtable
define dso_local ptr @zend_zval_value_name(ptr noundef %0) #0 {
  %2 = alloca ptr, align 8
  %3 = alloca ptr, align 8
  store ptr %0, ptr %3, align 8, !tbaa !8
  br label %4

4:                                                ; preds = %1
  %5 = load ptr, ptr %3, align 8, !tbaa !8
  %6 = call zeroext i8 @zval_get_type(ptr noundef %5)
  %7 = zext i8 %6 to i32
  %8 = icmp eq i32 %7, 10
  %9 = xor i1 %8, true
  %10 = xor i1 %9, true
  %11 = zext i1 %10 to i32
  %12 = sext i32 %11 to i64
  %13 = call i64 @llvm.expect.i64(i64 %12, i64 0)
  %14 = icmp ne i64 %13, 0
  br i1 %14, label %15, label %20

15:                                               ; preds = %4
  %16 = load ptr, ptr %3, align 8, !tbaa !8
  %17 = getelementptr inbounds nuw %struct._zval_struct, ptr %16, i32 0, i32 0
  %18 = load ptr, ptr %17, align 8, !tbaa !44
  %19 = getelementptr inbounds nuw %struct._zend_reference, ptr %18, i32 0, i32 1
  store ptr %19, ptr %3, align 8, !tbaa !8
  br label %20

20:                                               ; preds = %15, %4
  br label %21

21:                                               ; preds = %20
  %22 = load ptr, ptr %3, align 8, !tbaa !8
  %23 = call zeroext i8 @zval_get_type(ptr noundef %22)
  %24 = zext i8 %23 to i32
  %25 = icmp eq i32 %24, 0
  br i1 %25, label %26, label %27

26:                                               ; preds = %21
  store ptr @.str.8, ptr %2, align 8
  br label %61

27:                                               ; preds = %21
  %28 = load ptr, ptr %3, align 8, !tbaa !8
  %29 = call zeroext i8 @zval_get_type(ptr noundef %28)
  %30 = zext i8 %29 to i32
  %31 = icmp eq i32 %30, 8
  br i1 %31, label %32, label %42

32:                                               ; preds = %27
  %33 = load ptr, ptr %3, align 8, !tbaa !8
  %34 = getelementptr inbounds nuw %struct._zval_struct, ptr %33, i32 0, i32 0
  %35 = load ptr, ptr %34, align 8, !tbaa !44
  %36 = getelementptr inbounds nuw %struct._zend_object, ptr %35, i32 0, i32 3
  %37 = load ptr, ptr %36, align 8, !tbaa !51
  %38 = getelementptr inbounds nuw %struct._zend_class_entry, ptr %37, i32 0, i32 1
  %39 = load ptr, ptr %38, align 8, !tbaa !54
  %40 = getelementptr inbounds nuw %struct._zend_string, ptr %39, i32 0, i32 3
  %41 = getelementptr inbounds [1 x i8], ptr %40, i64 0, i64 0
  store ptr %41, ptr %2, align 8
  br label %61

42:                                               ; preds = %27
  %43 = load ptr, ptr %3, align 8, !tbaa !8
  %44 = call zeroext i8 @zval_get_type(ptr noundef %43)
  %45 = zext i8 %44 to i32
  %46 = icmp eq i32 %45, 2
  br i1 %46, label %47, label %48

47:                                               ; preds = %42
  store ptr @.str.15, ptr %2, align 8
  br label %61

48:                                               ; preds = %42
  %49 = load ptr, ptr %3, align 8, !tbaa !8
  %50 = call zeroext i8 @zval_get_type(ptr noundef %49)
  %51 = zext i8 %50 to i32
  %52 = icmp eq i32 %51, 3
  br i1 %52, label %53, label %54

53:                                               ; preds = %48
  store ptr @.str.16, ptr %2, align 8
  br label %61

54:                                               ; preds = %48
  br label %55

55:                                               ; preds = %54
  br label %56

56:                                               ; preds = %55
  %57 = load ptr, ptr %3, align 8, !tbaa !8
  %58 = call zeroext i8 @zval_get_type(ptr noundef %57)
  %59 = zext i8 %58 to i32
  %60 = call ptr @zend_get_type_by_const(i32 noundef %59)
  store ptr %60, ptr %2, align 8
  br label %61

61:                                               ; preds = %56, %53, %47, %32, %26
  %62 = load ptr, ptr %2, align 8
  ret ptr %62
}

; Function Attrs: nounwind uwtable
define dso_local void @zend_wrong_parameter_class_or_long_error(i32 noundef %0, ptr noundef %1, ptr noundef %2) #0 {
  %4 = alloca i32, align 4
  %5 = alloca ptr, align 8
  %6 = alloca ptr, align 8
  store i32 %0, ptr %4, align 4, !tbaa !4
  store ptr %1, ptr %5, align 8, !tbaa !47
  store ptr %2, ptr %6, align 8, !tbaa !8
  %7 = load ptr, ptr getelementptr inbounds nuw (%struct._zend_executor_globals, ptr @executor_globals, i32 0, i32 54), align 8, !tbaa !65
  %8 = icmp ne ptr %7, null
  br i1 %8, label %9, label %10

9:                                                ; preds = %3
  br label %15

10:                                               ; preds = %3
  %11 = load i32, ptr %4, align 4, !tbaa !4
  %12 = load ptr, ptr %5, align 8, !tbaa !47
  %13 = load ptr, ptr %6, align 8, !tbaa !8
  %14 = call ptr @zend_zval_value_name(ptr noundef %13)
  call void (i32, ptr, ...) @zend_argument_type_error(i32 noundef %11, ptr noundef @.str.61, ptr noundef %12, ptr noundef %14)
  br label %15

15:                                               ; preds = %10, %9
  ret void
}