; Function Attrs: nounwind uwtable
define dso_local void @zend_wrong_parameter_class_or_long_error(i32 noundef %0, ptr noundef %1, ptr noundef readonly captures(none) %2) local_unnamed_addr #2 {
  %4 = load ptr, ptr getelementptr inbounds nuw (i8, ptr @executor_globals, i64 960), align 8, !tbaa !64
  %.not = icmp eq ptr %4, null
  br i1 %.not, label %5, label %32

5:                                                ; preds = %3
  %6 = getelementptr inbounds nuw i8, ptr %2, i64 8
  %7 = load i8, ptr %6, align 8, !tbaa !42
  %8 = icmp eq i8 %7, 10
  br i1 %8, label %9, label %12, !prof !46

9:                                                ; preds = %5
  %10 = load ptr, ptr %2, align 8, !tbaa !42
  %11 = getelementptr inbounds nuw i8, ptr %10, i64 8
  %.phi.trans.insert.i = getelementptr inbounds nuw i8, ptr %10, i64 16
  %.pre.i = load i8, ptr %.phi.trans.insert.i, align 8, !tbaa !42
  br label %12

12:                                               ; preds = %9, %5
  %13 = phi i8 [ %.pre.i, %9 ], [ %7, %5 ]
  %.0.i = phi ptr [ %11, %9 ], [ %2, %5 ]
  switch i8 %13, label %31 [
    i8 0, label %zend_zval_value_name.exit
    i8 8, label %14
    i8 2, label %zend_get_type_by_const.exit.fold.split.i
    i8 3, label %zend_get_type_by_const.exit.fold.split10.i
    i8 14, label %28
    i8 16, label %29
    i8 18, label %zend_get_type_by_const.exit.fold.split11.i
    i8 4, label %21
    i8 5, label %22
    i8 6, label %23
    i8 19, label %30
    i8 9, label %24
    i8 1, label %zend_zval_value_name.exit
    i8 12, label %25
    i8 13, label %26
    i8 7, label %27
  ]

14:                                               ; preds = %12
  %15 = load ptr, ptr %.0.i, align 8, !tbaa !42
  %16 = getelementptr inbounds nuw i8, ptr %15, i64 16
  %17 = load ptr, ptr %16, align 8, !tbaa !47
  %18 = getelementptr inbounds nuw i8, ptr %17, i64 8
  %19 = load ptr, ptr %18, align 8, !tbaa !50
  %20 = getelementptr inbounds nuw i8, ptr %19, i64 24
  br label %zend_zval_value_name.exit

21:                                               ; preds = %12
  br label %zend_zval_value_name.exit

22:                                               ; preds = %12
  br label %zend_zval_value_name.exit

23:                                               ; preds = %12
  br label %zend_zval_value_name.exit

24:                                               ; preds = %12
  br label %zend_zval_value_name.exit

25:                                               ; preds = %12
  br label %zend_zval_value_name.exit

26:                                               ; preds = %12
  br label %zend_zval_value_name.exit

27:                                               ; preds = %12
  br label %zend_zval_value_name.exit

28:                                               ; preds = %12
  br label %zend_zval_value_name.exit

29:                                               ; preds = %12
  br label %zend_zval_value_name.exit

30:                                               ; preds = %12
  br label %zend_zval_value_name.exit

31:                                               ; preds = %12
  unreachable

zend_get_type_by_const.exit.fold.split.i:         ; preds = %12
  br label %zend_zval_value_name.exit

zend_get_type_by_const.exit.fold.split10.i:       ; preds = %12
  br label %zend_zval_value_name.exit

zend_get_type_by_const.exit.fold.split11.i:       ; preds = %12
  br label %zend_zval_value_name.exit

zend_zval_value_name.exit:                        ; preds = %12, %12, %14, %21, %22, %23, %24, %25, %26, %27, %28, %29, %30, %zend_get_type_by_const.exit.fold.split.i, %zend_get_type_by_const.exit.fold.split10.i, %zend_get_type_by_const.exit.fold.split11.i
  %.09.i = phi ptr [ %20, %14 ], [ @.str.8, %12 ], [ @.str.14, %30 ], [ @.str.13, %29 ], [ @.str.12, %28 ], [ @.str.11, %27 ], [ @.str.10, %26 ], [ @.str.9, %25 ], [ @.str.7, %24 ], [ @.str.5, %23 ], [ @.str.4, %22 ], [ @.str.3, %21 ], [ @.str.15, %zend_get_type_by_const.exit.fold.split.i ], [ @.str.16, %zend_get_type_by_const.exit.fold.split10.i ], [ @.str.2, %zend_get_type_by_const.exit.fold.split11.i ], [ @.str.8, %12 ]
  tail call void (i32, ptr, ...) @zend_argument_type_error(i32 noundef %0, ptr noundef nonnull @.str.61, ptr noundef %1, ptr noundef nonnull %.09.i)
  br label %32

32:                                               ; preds = %3, %zend_zval_value_name.exit
  ret void
}